target datalayout = "e-m:e-p270:32:32-p271:32:32-p272:64:64-i64:64-i128:128-f80:128-n8:16:32:64-S128"
target triple = "x86_64-pc-linux-gnu"

%struct.StripnullState = type { ptr, ptr, i8 }

; Function Attrs: nounwind uwtable
define internal i32 @sn_scalar(ptr noundef %0, ptr noundef %1, i32 noundef %2) #0 {
  %4 = alloca i32, align 4
  %5 = alloca ptr, align 8
  %6 = alloca ptr, align 8
  %7 = alloca i32, align 4
  %8 = alloca ptr, align 8
  %9 = alloca i32, align 4
  store ptr %0, ptr %5, align 8
  store ptr %1, ptr %6, align 8
  store i32 %2, ptr %7, align 4
  call void @llvm.lifetime.start.p0(i64 8, ptr %8) #10
  %10 = load ptr, ptr %5, align 8
  store ptr %10, ptr %8, align 8
  %11 = load ptr, ptr %8, align 8
  %12 = getelementptr inbounds nuw %struct.StripnullState, ptr %11, i32 0, i32 2
  %13 = load i8, ptr %12, align 8, !range !4, !noundef !5
  %14 = trunc i8 %13 to i1
  br i1 %14, label %15, label %18

15:                                               ; preds = %3
  %16 = load ptr, ptr %8, align 8
  %17 = getelementptr inbounds nuw %struct.StripnullState, ptr %16, i32 0, i32 2
  store i8 0, ptr %17, align 8
  store i32 0, ptr %4, align 4
  store i32 1, ptr %9, align 4
  br label %32

18:                                               ; preds = %3
  %19 = load i32, ptr %7, align 4
  %20 = icmp eq i32 %19, 1
  br i1 %20, label %21, label %26

21:                                               ; preds = %18
  %22 = load ptr, ptr %8, align 8
  %23 = getelementptr inbounds nuw %struct.StripnullState, ptr %22, i32 0, i32 1
  %24 = load ptr, ptr %23, align 8
  %25 = load ptr, ptr %6, align 8
  call void @escape_json(ptr noundef %24, ptr noundef %25)
  br label %31

26:                                               ; preds = %18
  %27 = load ptr, ptr %8, align 8
  %28 = getelementptr inbounds nuw %struct.StripnullState, ptr %27, i32 0, i32 1
  %29 = load ptr, ptr %28, align 8
  %30 = load ptr, ptr %6, align 8
  call void @appendStringInfoString(ptr noundef %29, ptr noundef %30)
  br label %31

31:                                               ; preds = %26, %21
  store i32 0, ptr %4, align 4
  store i32 1, ptr %9, align 4
  br label %32

32:                                               ; preds = %31, %15
  call void @llvm.lifetime.end.p0(i64 8, ptr %8) #10
  %33 = load i32, ptr %4, align 4
  ret i32 %33
}