; Function Attrs: nounwind uwtable
define internal noundef i32 @sn_scalar(ptr noundef captures(none) %0, ptr noundef %1, i32 noundef %2) #0 {
  %4 = getelementptr inbounds nuw i8, ptr %0, i64 16
  %5 = load i8, ptr %4, align 8, !range !4, !noundef !5
  %6 = trunc nuw i8 %5 to i1
  br i1 %6, label %7, label %8

7:                                                ; preds = %3
  store i8 0, ptr %4, align 8
  br label %14

8:                                                ; preds = %3
  %9 = icmp eq i32 %2, 1
  %10 = getelementptr inbounds nuw i8, ptr %0, i64 8
  %11 = load ptr, ptr %10, align 8
  br i1 %9, label %12, label %13

12:                                               ; preds = %8
  tail call void @escape_json(ptr noundef %11, ptr noundef %1) #15
  br label %14

13:                                               ; preds = %8
  tail call void @appendStringInfoString(ptr noundef %11, ptr noundef %1) #15
  br label %14

14:                                               ; preds = %12, %13, %7
  ret i32 0
}